target datalayout = "e-m:e-p270:32:32-p271:32:32-p272:64:64-i64:64-i128:128-f80:128-n8:16:32:64-S128"
target triple = "x86_64-pc-linux-gnu"

%"class.cv::Matx" = type { [3 x float] }

; Function Attrs: inlinehint mustprogress nounwind uwtable
define linkonce_odr hidden noundef nonnull align 4 dereferenceable(4) ptr @_ZNK2cv3VecIfLi3EEixEi(ptr noundef nonnull align 4 dereferenceable(12) %0, i32 noundef %1) #11 comdat align 2 {
  %3 = alloca ptr, align 8
  %4 = alloca i32, align 4
  store ptr %0, ptr %3, align 8, !tbaa !3
  store i32 %1, ptr %4, align 4, !tbaa !10
  %5 = load ptr, ptr %3, align 8
  %6 = getelementptr inbounds nuw %"class.cv::Matx", ptr %5, i32 0, i32 0
  %7 = load i32, ptr %4, align 4, !tbaa !10
  %8 = sext i32 %7 to i64
  %9 = getelementptr inbounds [3 x float], ptr %6, i64 0, i64 %8
  ret ptr %9
}

; Function Attrs: inlinehint mustprogress nounwind uwtable
define internal void @_ZN2cv4rgbdL32calcICPEquationCoeffsTranslationEPdRKNS_7Point3_IfEERKNS_3VecIfLi3EEE(ptr noundef %0, ptr noundef nonnull align 4 dereferenceable(12) %1, ptr noundef nonnull align 4 dereferenceable(12) %2) #11 {
  %4 = alloca ptr, align 8
  %5 = alloca ptr, align 8
  %6 = alloca ptr, align 8
  store ptr %0, ptr %4, align 8, !tbaa !289
  store ptr %1, ptr %5, align 8, !tbaa !161
  store ptr %2, ptr %6, align 8, !tbaa !3
  %7 = load ptr, ptr %6, align 8, !tbaa !3
  %8 = call noundef nonnull align 4 dereferenceable(4) ptr @_ZNK2cv3VecIfLi3EEixEi(ptr noundef nonnull align 4 dereferenceable(12) %7, i32 noundef 0)
  %9 = load float, ptr %8, align 4, !tbaa !8
  %10 = fpext float %9 to double
  %11 = load ptr, ptr %4, align 8, !tbaa !289
  %12 = getelementptr inbounds double, ptr %11, i64 0
  store double %10, ptr %12, align 8, !tbaa !117
  %13 = load ptr, ptr %6, align 8, !tbaa !3
  %14 = call noundef nonnull align 4 dereferenceable(4) ptr @_ZNK2cv3VecIfLi3EEixEi(ptr noundef nonnull align 4 dereferenceable(12) %13, i32 noundef 1)
  %15 = load float, ptr %14, align 4, !tbaa !8
  %16 = fpext float %15 to double
  %17 = load ptr, ptr %4, align 8, !tbaa !289
  %18 = getelementptr inbounds double, ptr %17, i64 1
  store double %16, ptr %18, align 8, !tbaa !117
  %19 = load ptr, ptr %6, align 8, !tbaa !3
  %20 = call noundef nonnull align 4 dereferenceable(4) ptr @_ZNK2cv3VecIfLi3EEixEi(ptr noundef nonnull align 4 dereferenceable(12) %19, i32 noundef 2)
  %21 = load float, ptr %20, align 4, !tbaa !8
  %22 = fpext float %21 to double
  %23 = load ptr, ptr %4, align 8, !tbaa !289
  %24 = getelementptr inbounds double, ptr %23, i64 2
  store double %22, ptr %24, align 8, !tbaa !117
  ret void
}