; Function Attrs: inlinehint mustprogress nofree norecurse nosync nounwind willreturn memory(argmem: readwrite) uwtable
define internal void @_ZN2cv4rgbdL32calcICPEquationCoeffsTranslationEPdRKNS_7Point3_IfEERKNS_3VecIfLi3EEE(ptr noundef writeonly captures(none) initializes((0, 24)) %0, ptr nonnull readnone align 4 captures(none) %1, ptr noundef nonnull readonly align 4 captures(none) dereferenceable(12) %2) unnamed_addr #17 {
  %4 = load float, ptr %2, align 4, !tbaa !122
  %5 = fpext float %4 to double
  store double %5, ptr %0, align 8, !tbaa !154
  %6 = getelementptr inbounds nuw i8, ptr %2, i64 4
  %7 = load float, ptr %6, align 4, !tbaa !122
  %8 = fpext float %7 to double
  %9 = getelementptr inbounds nuw i8, ptr %0, i64 8
  store double %8, ptr %9, align 8, !tbaa !154
  %10 = getelementptr inbounds nuw i8, ptr %2, i64 8
  %11 = load float, ptr %10, align 4, !tbaa !122
  %12 = fpext float %11 to double
  %13 = getelementptr inbounds nuw i8, ptr %0, i64 16
  store double %12, ptr %13, align 8, !tbaa !154
  ret void
}